; Function Attrs: nounwind uwtable
define void @Acb_NtkSaveSupport(ptr noundef captures(none) initializes((484, 488)) %0, i32 noundef %1) local_unnamed_addr #0 {
  %3 = getelementptr inbounds nuw i8, ptr %0, i64 480
  %4 = getelementptr inbounds nuw i8, ptr %0, i64 484
  store i32 0, ptr %4, align 4, !tbaa !27
  %5 = getelementptr i8, ptr %0, i64 136
  %.val = load ptr, ptr %5, align 8, !tbaa !21
  %6 = getelementptr i8, ptr %0, i64 152
  %.val9 = load ptr, ptr %6, align 8, !tbaa !21
  %7 = sext i32 %1 to i64
  %8 = getelementptr inbounds i32, ptr %.val, i64 %7
  %9 = load i32, ptr %8, align 4, !tbaa !22
  %10 = sext i32 %9 to i64
  %11 = getelementptr inbounds i32, ptr %.val9, i64 %10
  %12 = load i32, ptr %11, align 4, !tbaa !22
  %13 = icmp sgt i32 %12, 0
  br i1 %13, label %.lr.ph, label %.critedge

.lr.ph:                                           ; preds = %2
  %.phi.trans.insert.i = getelementptr inbounds nuw i8, ptr %0, i64 488
  br label %14

14:                                               ; preds = %.lr.ph, %Vec_IntPush.exit
  %indvars.iv = phi i64 [ 0, %.lr.ph ], [ %indvars.iv.next, %Vec_IntPush.exit ]
  %indvars.iv.next = add nuw nsw i64 %indvars.iv, 1
  %15 = getelementptr inbounds nuw i32, ptr %11, i64 %indvars.iv.next
  %16 = load i32, ptr %15, align 4, !tbaa !22
  %17 = load i32, ptr %4, align 4, !tbaa !27
  %18 = load i32, ptr %3, align 8, !tbaa !28
  %19 = icmp eq i32 %17, %18
  br i1 %19, label %20, label %.Vec_IntGrow.exit10_crit_edge.i

.Vec_IntGrow.exit10_crit_edge.i:                  ; preds = %14
  %.pre.i = load ptr, ptr %.phi.trans.insert.i, align 8, !tbaa !21
  br label %Vec_IntPush.exit

20:                                               ; preds = %14
  %21 = icmp slt i32 %17, 16
  br i1 %21, label %22, label %29

22:                                               ; preds = %20
  %23 = load ptr, ptr %.phi.trans.insert.i, align 8, !tbaa !21
  %.not9.i.i = icmp eq ptr %23, null
  br i1 %.not9.i.i, label %26, label %24

24:                                               ; preds = %22
  %25 = tail call dereferenceable_or_null(64) ptr @realloc(ptr noundef nonnull %23, i64 noundef 64) #25
  br label %Vec_IntGrow.exit.i

26:                                               ; preds = %22
  %27 = tail call noalias dereferenceable_or_null(64) ptr @malloc(i64 noundef 64) #26
  br label %Vec_IntGrow.exit.i

Vec_IntGrow.exit.i:                               ; preds = %26, %24
  %28 = phi ptr [ %25, %24 ], [ %27, %26 ]
  store ptr %28, ptr %.phi.trans.insert.i, align 8, !tbaa !21
  store i32 16, ptr %3, align 8, !tbaa !28
  br label %Vec_IntPush.exit

29:                                               ; preds = %20
  %30 = shl nuw nsw i32 %17, 1
  %31 = load ptr, ptr %.phi.trans.insert.i, align 8, !tbaa !21
  %.not9.i9.i = icmp eq ptr %31, null
  %32 = zext nneg i32 %30 to i64
  %33 = shl nuw nsw i64 %32, 2
  br i1 %.not9.i9.i, label %36, label %34

34:                                               ; preds = %29
  %35 = tail call ptr @realloc(ptr noundef nonnull %31, i64 noundef %33) #25
  br label %38

36:                                               ; preds = %29
  %37 = tail call noalias ptr @malloc(i64 noundef %33) #26
  br label %38

38:                                               ; preds = %36, %34
  %39 = phi ptr [ %35, %34 ], [ %37, %36 ]
  store ptr %39, ptr %.phi.trans.insert.i, align 8, !tbaa !21
  store i32 %30, ptr %3, align 8, !tbaa !28
  br label %Vec_IntPush.exit

Vec_IntPush.exit:                                 ; preds = %.Vec_IntGrow.exit10_crit_edge.i, %Vec_IntGrow.exit.i, %38
  %40 = phi ptr [ %.pre.i, %.Vec_IntGrow.exit10_crit_edge.i ], [ %39, %38 ], [ %28, %Vec_IntGrow.exit.i ]
  %41 = load i32, ptr %4, align 4, !tbaa !27
  %42 = add nsw i32 %41, 1
  store i32 %42, ptr %4, align 4, !tbaa !27
  %43 = sext i32 %41 to i64
  %44 = getelementptr inbounds i32, ptr %40, i64 %43
  store i32 %16, ptr %44, align 4, !tbaa !22
  %45 = load i32, ptr %11, align 4, !tbaa !22
  %46 = sext i32 %45 to i64
  %47 = icmp slt i64 %indvars.iv.next, %46
  br i1 %47, label %14, label %.critedge, !llvm.loop !132

.critedge:                                        ; preds = %Vec_IntPush.exit, %2
  ret void
}